; Function Attrs: mustprogress uwtable
define hidden void @_ZN4cvc58internal6theory4bags13BagEnumeratorC2ERKS3_(ptr noundef nonnull align 8 dereferenceable(48) %this, ptr nocapture noundef nonnull readonly align 8 dereferenceable(48) %enumerator) unnamed_addr #3 align 2 personality ptr @__gxx_personality_v0 {
entry:
  %agg.tmp = alloca %"class.cvc5::internal::TypeNode", align 8
  tail call void @llvm.experimental.noalias.scope.decl(metadata !8)
  %d_type.i = getelementptr inbounds i8, ptr %enumerator, i64 8
  %0 = load ptr, ptr %d_type.i, align 8, !noalias !8
  store ptr %0, ptr %agg.tmp, align 8, !alias.scope !8
  %bf.load.i.i.i = load i64, ptr %0, align 8, !noalias !8
  %bf.lshr.i.i.i = lshr i64 %bf.load.i.i.i, 40
  %1 = trunc i64 %bf.lshr.i.i.i to i32
  %bf.cast.i.i.i = and i32 %1, 1048575
  %cmp.i.i.i = icmp ult i32 %bf.cast.i.i.i, 1048574
  br i1 %cmp.i.i.i, label %if.then.i.i.i, label %if.else.i.i.i

if.then.i.i.i:                                    ; preds = %entry
  %bf.value.i.i.i = add i64 %bf.load.i.i.i, 1099511627776
  %bf.shl.i.i.i = and i64 %bf.value.i.i.i, 1152920405095219200
  %bf.clear7.i.i.i = and i64 %bf.load.i.i.i, -1152920405095219201
  %bf.set.i.i.i = or disjoint i64 %bf.shl.i.i.i, %bf.clear7.i.i.i
  store i64 %bf.set.i.i.i, ptr %0, align 8, !noalias !8
  br label %_ZNK4cvc58internal6theory23TypeEnumeratorInterface7getTypeEv.exit

if.else.i.i.i:                                    ; preds = %entry
  %cmp12.i.i.i = icmp eq i32 %bf.cast.i.i.i, 1048574
  br i1 %cmp12.i.i.i, label %if.then13.i.i.i, label %_ZNK4cvc58internal6theory23TypeEnumeratorInterface7getTypeEv.exit

if.then13.i.i.i:                                  ; preds = %if.else.i.i.i
  %bf.set23.i.i.i = or i64 %bf.load.i.i.i, 1152920405095219200
  store i64 %bf.set23.i.i.i, ptr %0, align 8, !noalias !8
  tail call void @_ZN4cvc58internal4expr9NodeValue20markRefCountMaxedOutEv(ptr noundef nonnull align 8 dereferenceable(16) %0), !noalias !8
  br label %_ZNK4cvc58internal6theory23TypeEnumeratorInterface7getTypeEv.exit

_ZNK4cvc58internal6theory23TypeEnumeratorInterface7getTypeEv.exit: ; preds = %if.then.i.i.i, %if.else.i.i.i, %if.then13.i.i.i
  invoke void @_ZN4cvc58internal6theory18TypeEnumeratorBaseINS1_4bags13BagEnumeratorEEC2ENS0_8TypeNodeE(ptr noundef nonnull align 8 dereferenceable(16) %this, ptr noundef nonnull %agg.tmp)
          to label %invoke.cont unwind label %lpad

invoke.cont:                                      ; preds = %_ZNK4cvc58internal6theory23TypeEnumeratorInterface7getTypeEv.exit
  %2 = load ptr, ptr %agg.tmp, align 8
  %bf.load.i.i = load i64, ptr %2, align 8
  %3 = and i64 %bf.load.i.i, 1152920405095219200
  %cmp.not.i.i = icmp eq i64 %3, 1152920405095219200
  br i1 %cmp.not.i.i, label %_ZN4cvc58internal8TypeNodeD2Ev.exit, label %if.then.i.i

if.then.i.i:                                      ; preds = %invoke.cont
  %bf.value.i.i = add i64 %bf.load.i.i, 1152920405095219200
  %bf.shl.i.i = and i64 %bf.value.i.i, 1152920405095219200
  %bf.clear7.i.i = and i64 %bf.load.i.i, -1152920405095219201
  %bf.set.i.i = or disjoint i64 %bf.shl.i.i, %bf.clear7.i.i
  store i64 %bf.set.i.i, ptr %2, align 8
  %cmp12.i.i = icmp eq i64 %bf.shl.i.i, 0
  br i1 %cmp12.i.i, label %if.then13.i.i, label %_ZN4cvc58internal8TypeNodeD2Ev.exit

if.then13.i.i:                                    ; preds = %if.then.i.i
  invoke void @_ZN4cvc58internal4expr9NodeValue15markForDeletionEv(ptr noundef nonnull align 8 dereferenceable(16) %2)
          to label %_ZN4cvc58internal8TypeNodeD2Ev.exit unwind label %terminate.lpad.i

terminate.lpad.i:                                 ; preds = %if.then13.i.i
  %4 = landingpad { ptr, i32 }
          catch ptr null
  %5 = extractvalue { ptr, i32 } %4, 0
  call void @__clang_call_terminate(ptr %5) #14
  unreachable

_ZN4cvc58internal8TypeNodeD2Ev.exit:              ; preds = %invoke.cont, %if.then.i.i, %if.then13.i.i
  store ptr getelementptr inbounds ({ [8 x ptr] }, ptr @_ZTVN4cvc58internal6theory4bags13BagEnumeratorE, i64 0, i32 0, i64 2), ptr %this, align 8
  %d_nodeManager = getelementptr inbounds i8, ptr %this, i64 16
  %d_nodeManager2 = getelementptr inbounds i8, ptr %enumerator, i64 16
  %6 = load ptr, ptr %d_nodeManager2, align 8
  store ptr %6, ptr %d_nodeManager, align 8
  %d_elementTypeEnumerator = getelementptr inbounds i8, ptr %this, i64 24
  %d_elementTypeEnumerator3 = getelementptr inbounds i8, ptr %enumerator, i64 24
  %7 = load ptr, ptr %d_elementTypeEnumerator3, align 8
  %vtable.i = load ptr, ptr %7, align 8
  %vfn.i = getelementptr inbounds i8, ptr %vtable.i, i64 40
  %8 = load ptr, ptr %vfn.i, align 8
  %call.i8 = invoke noundef ptr %8(ptr noundef nonnull align 8 dereferenceable(16) %7)
          to label %invoke.cont5 unwind label %lpad4

invoke.cont5:                                     ; preds = %_ZN4cvc58internal8TypeNodeD2Ev.exit
  store ptr %call.i8, ptr %d_elementTypeEnumerator, align 8
  %d_currentBag = getelementptr inbounds i8, ptr %this, i64 32
  %d_currentBag6 = getelementptr inbounds i8, ptr %enumerator, i64 32
  %9 = load ptr, ptr %d_currentBag6, align 8
  store ptr %9, ptr %d_currentBag, align 8
  %bf.load.i.i9 = load i64, ptr %9, align 8
  %bf.lshr.i.i = lshr i64 %bf.load.i.i9, 40
  %10 = trunc i64 %bf.lshr.i.i to i32
  %bf.cast.i.i = and i32 %10, 1048575
  %cmp.i.i = icmp ult i32 %bf.cast.i.i, 1048574
  br i1 %cmp.i.i, label %if.then.i.i12, label %if.else.i.i

if.then.i.i12:                                    ; preds = %invoke.cont5
  %bf.value.i.i13 = add i64 %bf.load.i.i9, 1099511627776
  %bf.shl.i.i14 = and i64 %bf.value.i.i13, 1152920405095219200
  %bf.clear7.i.i15 = and i64 %bf.load.i.i9, -1152920405095219201
  %bf.set.i.i16 = or disjoint i64 %bf.shl.i.i14, %bf.clear7.i.i15
  store i64 %bf.set.i.i16, ptr %9, align 8
  br label %invoke.cont8

if.else.i.i:                                      ; preds = %invoke.cont5
  %cmp12.i.i10 = icmp eq i32 %bf.cast.i.i, 1048574
  br i1 %cmp12.i.i10, label %if.then13.i.i11, label %invoke.cont8

if.then13.i.i11:                                  ; preds = %if.else.i.i
  %bf.set23.i.i = or i64 %bf.load.i.i9, 1152920405095219200
  store i64 %bf.set23.i.i, ptr %9, align 8
  invoke void @_ZN4cvc58internal4expr9NodeValue20markRefCountMaxedOutEv(ptr noundef nonnull align 8 dereferenceable(16) %9)
          to label %invoke.cont8 unwind label %lpad7

invoke.cont8:                                     ; preds = %if.else.i.i, %if.then.i.i12, %if.then13.i.i11
  %d_element = getelementptr inbounds i8, ptr %this, i64 40
  %d_element9 = getelementptr inbounds i8, ptr %enumerator, i64 40
  %11 = load ptr, ptr %d_element9, align 8
  store ptr %11, ptr %d_element, align 8
  %bf.load.i.i17 = load i64, ptr %11, align 8
  %bf.lshr.i.i18 = lshr i64 %bf.load.i.i17, 40
  %12 = trunc i64 %bf.lshr.i.i18 to i32
  %bf.cast.i.i19 = and i32 %12, 1048575
  %cmp.i.i20 = icmp ult i32 %bf.cast.i.i19, 1048574
  br i1 %cmp.i.i20, label %if.then.i.i25, label %if.else.i.i21

if.then.i.i25:                                    ; preds = %invoke.cont8
  %bf.value.i.i26 = add i64 %bf.load.i.i17, 1099511627776
  %bf.shl.i.i27 = and i64 %bf.value.i.i26, 1152920405095219200
  %bf.clear7.i.i28 = and i64 %bf.load.i.i17, -1152920405095219201
  %bf.set.i.i29 = or disjoint i64 %bf.shl.i.i27, %bf.clear7.i.i28
  store i64 %bf.set.i.i29, ptr %11, align 8
  br label %invoke.cont11

if.else.i.i21:                                    ; preds = %invoke.cont8
  %cmp12.i.i22 = icmp eq i32 %bf.cast.i.i19, 1048574
  br i1 %cmp12.i.i22, label %if.then13.i.i23, label %invoke.cont11

if.then13.i.i23:                                  ; preds = %if.else.i.i21
  %bf.set23.i.i24 = or i64 %bf.load.i.i17, 1152920405095219200
  store i64 %bf.set23.i.i24, ptr %11, align 8
  invoke void @_ZN4cvc58internal4expr9NodeValue20markRefCountMaxedOutEv(ptr noundef nonnull align 8 dereferenceable(16) %11)
          to label %invoke.cont11 unwind label %lpad10

invoke.cont11:                                    ; preds = %if.else.i.i21, %if.then.i.i25, %if.then13.i.i23
  ret void

lpad:                                             ; preds = %_ZNK4cvc58internal6theory23TypeEnumeratorInterface7getTypeEv.exit
  %13 = landingpad { ptr, i32 }
          cleanup
  call void @_ZN4cvc58internal8TypeNodeD2Ev(ptr noundef nonnull align 8 dereferenceable(8) %agg.tmp) #15
  br label %eh.resume

lpad4:                                            ; preds = %_ZN4cvc58internal8TypeNodeD2Ev.exit
  %14 = landingpad { ptr, i32 }
          cleanup
  br label %ehcleanup12

lpad7:                                            ; preds = %if.then13.i.i11
  %15 = landingpad { ptr, i32 }
          cleanup
  br label %ehcleanup

lpad10:                                           ; preds = %if.then13.i.i23
  %16 = landingpad { ptr, i32 }
          cleanup
  call void @_ZN4cvc58internal12NodeTemplateILb1EED2Ev(ptr noundef nonnull align 8 dereferenceable(8) %d_currentBag) #15
  br label %ehcleanup

ehcleanup:                                        ; preds = %lpad10, %lpad7
  %.pn = phi { ptr, i32 } [ %16, %lpad10 ], [ %15, %lpad7 ]
  %17 = load ptr, ptr %d_elementTypeEnumerator, align 8
  %isnull.i = icmp eq ptr %17, null
  br i1 %isnull.i, label %ehcleanup12, label %delete.notnull.i

delete.notnull.i:                                 ; preds = %ehcleanup
  %vtable.i32 = load ptr, ptr %17, align 8
  %vfn.i33 = getelementptr inbounds i8, ptr %vtable.i32, i64 8
  %18 = load ptr, ptr %vfn.i33, align 8
  call void %18(ptr noundef nonnull align 8 dereferenceable(16) %17) #15
  br label %ehcleanup12

ehcleanup12:                                      ; preds = %delete.notnull.i, %ehcleanup, %lpad4
  %.pn.pn = phi { ptr, i32 } [ %14, %lpad4 ], [ %.pn, %ehcleanup ], [ %.pn, %delete.notnull.i ]
  call void @_ZN4cvc58internal6theory18TypeEnumeratorBaseINS1_4bags13BagEnumeratorEED2Ev(ptr noundef nonnull align 8 dereferenceable(16) %this) #15
  br label %eh.resume

eh.resume:                                        ; preds = %ehcleanup12, %lpad
  %.pn.pn.pn = phi { ptr, i32 } [ %.pn.pn, %ehcleanup12 ], [ %13, %lpad ]
  resume { ptr, i32 } %.pn.pn.pn
}